target datalayout = "e-m:e-p270:32:32-p271:32:32-p272:64:64-i64:64-i128:128-f80:128-n8:16:32:64-S128"
target triple = "x86_64-pc-linux-gnu"

%struct.jpeg_compress_struct = type { ptr, ptr, ptr, ptr, i32, i32, ptr, i32, i32, i32, i32, double, i32, i32, i32, ptr, [4 x ptr], [4 x ptr], [4 x ptr], [16 x i8], [16 x i8], [16 x i8], i32, ptr, i32, i32, i32, i32, i32, i32, i32, i32, i32, i8, i8, i8, i16, i16, i32, i32, i32, i32, i32, i32, i32, [4 x ptr], i32, i32, i32, [10 x i32], i32, i32, i32, i32, ptr, ptr, ptr, ptr, ptr, ptr, ptr, ptr, ptr, ptr, i32 }
%struct.jpeg_error_mgr = type { ptr, ptr, ptr, ptr, ptr, i32, %union.anon, i32, i64, ptr, i32, ptr, i32, i32 }
%union.anon = type { [8 x i32], [48 x i8] }
%struct.jpeg_marker_writer = type { ptr, ptr, ptr, ptr, ptr, ptr, ptr }

; Function Attrs: nounwind uwtable
define hidden void @jWrtMHeader(ptr noundef %0, i32 noundef %1, i32 noundef %2) #0 {
  %4 = alloca ptr, align 8
  %5 = alloca i32, align 4
  %6 = alloca i32, align 4
  store ptr %0, ptr %4, align 8
  store i32 %1, ptr %5, align 4
  store i32 %2, ptr %6, align 4
  %7 = load ptr, ptr %4, align 8
  %8 = getelementptr inbounds %struct.jpeg_compress_struct, ptr %7, i32 0, i32 39
  %9 = load i32, ptr %8, align 8
  %10 = icmp ne i32 %9, 0
  br i1 %10, label %26, label %11

11:                                               ; preds = %3
  %12 = load ptr, ptr %4, align 8
  %13 = getelementptr inbounds %struct.jpeg_compress_struct, ptr %12, i32 0, i32 5
  %14 = load i32, ptr %13, align 4
  %15 = icmp ne i32 %14, 101
  br i1 %15, label %16, label %45

16:                                               ; preds = %11
  %17 = load ptr, ptr %4, align 8
  %18 = getelementptr inbounds %struct.jpeg_compress_struct, ptr %17, i32 0, i32 5
  %19 = load i32, ptr %18, align 4
  %20 = icmp ne i32 %19, 102
  br i1 %20, label %21, label %45

21:                                               ; preds = %16
  %22 = load ptr, ptr %4, align 8
  %23 = getelementptr inbounds %struct.jpeg_compress_struct, ptr %22, i32 0, i32 5
  %24 = load i32, ptr %23, align 4
  %25 = icmp ne i32 %24, 103
  br i1 %25, label %26, label %45

26:                                               ; preds = %21, %3
  %27 = load ptr, ptr %4, align 8
  %28 = getelementptr inbounds %struct.jpeg_compress_struct, ptr %27, i32 0, i32 0
  %29 = load ptr, ptr %28, align 8
  %30 = getelementptr inbounds %struct.jpeg_error_mgr, ptr %29, i32 0, i32 5
  store i32 20, ptr %30, align 8
  %31 = load ptr, ptr %4, align 8
  %32 = getelementptr inbounds %struct.jpeg_compress_struct, ptr %31, i32 0, i32 5
  %33 = load i32, ptr %32, align 4
  %34 = load ptr, ptr %4, align 8
  %35 = getelementptr inbounds %struct.jpeg_compress_struct, ptr %34, i32 0, i32 0
  %36 = load ptr, ptr %35, align 8
  %37 = getelementptr inbounds %struct.jpeg_error_mgr, ptr %36, i32 0, i32 6
  %38 = getelementptr inbounds [8 x i32], ptr %37, i64 0, i64 0
  store i32 %33, ptr %38, align 4
  %39 = load ptr, ptr %4, align 8
  %40 = getelementptr inbounds %struct.jpeg_compress_struct, ptr %39, i32 0, i32 0
  %41 = load ptr, ptr %40, align 8
  %42 = getelementptr inbounds %struct.jpeg_error_mgr, ptr %41, i32 0, i32 0
  %43 = load ptr, ptr %42, align 8
  %44 = load ptr, ptr %4, align 8
  call void %43(ptr noundef %44)
  br label %45

45:                                               ; preds = %26, %21, %16, %11
  %46 = load ptr, ptr %4, align 8
  %47 = getelementptr inbounds %struct.jpeg_compress_struct, ptr %46, i32 0, i32 58
  %48 = load ptr, ptr %47, align 8
  %49 = getelementptr inbounds %struct.jpeg_marker_writer, ptr %48, i32 0, i32 5
  %50 = load ptr, ptr %49, align 8
  %51 = load ptr, ptr %4, align 8
  %52 = load i32, ptr %5, align 4
  %53 = load i32, ptr %6, align 4
  call void %50(ptr noundef %51, i32 noundef %52, i32 noundef %53)
  ret void
}