; Function Attrs: nounwind uwtable
define hidden void @jWrtMHeader(ptr noundef %0, i32 noundef %1, i32 noundef %2) local_unnamed_addr #0 {
  %4 = getelementptr inbounds i8, ptr %0, i64 304
  %5 = load i32, ptr %4, align 8
  %.not = icmp eq i32 %5, 0
  br i1 %.not, label %6, label %9

6:                                                ; preds = %3
  %7 = getelementptr inbounds i8, ptr %0, i64 36
  %8 = load i32, ptr %7, align 4
  %.off = add i32 %8, -101
  %switch = icmp ult i32 %.off, 3
  br i1 %switch, label %18, label %9

9:                                                ; preds = %6, %3
  %10 = load ptr, ptr %0, align 8
  %11 = getelementptr inbounds i8, ptr %10, i64 40
  store i32 20, ptr %11, align 8
  %12 = getelementptr inbounds i8, ptr %0, i64 36
  %13 = load i32, ptr %12, align 4
  %14 = load ptr, ptr %0, align 8
  %15 = getelementptr inbounds i8, ptr %14, i64 44
  store i32 %13, ptr %15, align 4
  %16 = load ptr, ptr %0, align 8
  %17 = load ptr, ptr %16, align 8
  tail call void %17(ptr noundef nonnull %0) #4
  br label %18

18:                                               ; preds = %6, %9
  %19 = getelementptr inbounds i8, ptr %0, i64 464
  %20 = load ptr, ptr %19, align 8
  %21 = getelementptr inbounds i8, ptr %20, i64 40
  %22 = load ptr, ptr %21, align 8
  tail call void %22(ptr noundef nonnull %0, i32 noundef %1, i32 noundef %2) #4
  ret void
}